target datalayout = "e-m:e-p270:32:32-p271:32:32-p272:64:64-i64:64-i128:128-f80:128-n8:16:32:64-S128"
target triple = "x86_64-pc-linux-gnu"

%struct.HeadlineParsedText = type { ptr, i32, i32, i32, ptr, ptr, ptr, i16, i16, i16 }
%struct.HeadlineWordEntry = type { i32, i16, ptr, ptr }

; Function Attrs: nounwind uwtable
define internal void @mark_fragment(ptr noundef %0, i1 noundef zeroext %1, i32 noundef %2, i32 noundef %3) #0 {
  %5 = alloca ptr, align 8
  %6 = alloca i8, align 1
  %7 = alloca i32, align 4
  %8 = alloca i32, align 4
  %9 = alloca i32, align 4
  store ptr %0, ptr %5, align 8
  %10 = zext i1 %1 to i8
  store i8 %10, ptr %6, align 1
  store i32 %2, ptr %7, align 4
  store i32 %3, ptr %8, align 4
  call void @llvm.lifetime.start.p0(i64 4, ptr %9) #11
  %11 = load i32, ptr %7, align 4
  store i32 %11, ptr %9, align 4
  br label %12

12:                                               ; preds = %194, %4
  %13 = load i32, ptr %9, align 4
  %14 = load i32, ptr %8, align 4
  %15 = icmp sle i32 %13, %14
  br i1 %15, label %16, label %197

16:                                               ; preds = %12
  %17 = load ptr, ptr %5, align 8
  %18 = getelementptr inbounds nuw %struct.HeadlineParsedText, ptr %17, i32 0, i32 0
  %19 = load ptr, ptr %18, align 8
  %20 = load i32, ptr %9, align 4
  %21 = sext i32 %20 to i64
  %22 = getelementptr inbounds %struct.HeadlineWordEntry, ptr %19, i64 %21
  %23 = getelementptr inbounds nuw %struct.HeadlineWordEntry, ptr %22, i32 0, i32 3
  %24 = load ptr, ptr %23, align 8
  %25 = icmp ne ptr %24, null
  br i1 %25, label %26, label %36

26:                                               ; preds = %16
  %27 = load ptr, ptr %5, align 8
  %28 = getelementptr inbounds nuw %struct.HeadlineParsedText, ptr %27, i32 0, i32 0
  %29 = load ptr, ptr %28, align 8
  %30 = load i32, ptr %9, align 4
  %31 = sext i32 %30 to i64
  %32 = getelementptr inbounds %struct.HeadlineWordEntry, ptr %29, i64 %31
  %33 = load i32, ptr %32, align 8
  %34 = and i32 %33, -2
  %35 = or i32 %34, 1
  store i32 %35, ptr %32, align 8
  br label %36

36:                                               ; preds = %26, %16
  %37 = load i8, ptr %6, align 1, !range !4, !noundef !5
  %38 = trunc i8 %37 to i1
  br i1 %38, label %116, label %39

39:                                               ; preds = %36
  %40 = load ptr, ptr %5, align 8
  %41 = getelementptr inbounds nuw %struct.HeadlineParsedText, ptr %40, i32 0, i32 0
  %42 = load ptr, ptr %41, align 8
  %43 = load i32, ptr %9, align 4
  %44 = sext i32 %43 to i64
  %45 = getelementptr inbounds %struct.HeadlineWordEntry, ptr %42, i64 %44
  %46 = load i32, ptr %45, align 8
  %47 = lshr i32 %46, 8
  %48 = and i32 %47, 255
  %49 = icmp eq i32 %48, 13
  br i1 %49, label %50, label %60

50:                                               ; preds = %39
  %51 = load ptr, ptr %5, align 8
  %52 = getelementptr inbounds nuw %struct.HeadlineParsedText, ptr %51, i32 0, i32 0
  %53 = load ptr, ptr %52, align 8
  %54 = load i32, ptr %9, align 4
  %55 = sext i32 %54 to i64
  %56 = getelementptr inbounds %struct.HeadlineWordEntry, ptr %53, i64 %55
  %57 = load i32, ptr %56, align 8
  %58 = and i32 %57, -5
  %59 = or i32 %58, 4
  store i32 %59, ptr %56, align 8
  br label %115

60:                                               ; preds = %39
  %61 = load ptr, ptr %5, align 8
  %62 = getelementptr inbounds nuw %struct.HeadlineParsedText, ptr %61, i32 0, i32 0
  %63 = load ptr, ptr %62, align 8
  %64 = load i32, ptr %9, align 4
  %65 = sext i32 %64 to i64
  %66 = getelementptr inbounds %struct.HeadlineWordEntry, ptr %63, i64 %65
  %67 = load i32, ptr %66, align 8
  %68 = lshr i32 %67, 8
  %69 = and i32 %68, 255
  %70 = icmp eq i32 %69, 5
  br i1 %70, label %104, label %71

71:                                               ; preds = %60
  %72 = load ptr, ptr %5, align 8
  %73 = getelementptr inbounds nuw %struct.HeadlineParsedText, ptr %72, i32 0, i32 0
  %74 = load ptr, ptr %73, align 8
  %75 = load i32, ptr %9, align 4
  %76 = sext i32 %75 to i64
  %77 = getelementptr inbounds %struct.HeadlineWordEntry, ptr %74, i64 %76
  %78 = load i32, ptr %77, align 8
  %79 = lshr i32 %78, 8
  %80 = and i32 %79, 255
  %81 = icmp eq i32 %80, 15
  br i1 %81, label %104, label %82

82:                                               ; preds = %71
  %83 = load ptr, ptr %5, align 8
  %84 = getelementptr inbounds nuw %struct.HeadlineParsedText, ptr %83, i32 0, i32 0
  %85 = load ptr, ptr %84, align 8
  %86 = load i32, ptr %9, align 4
  %87 = sext i32 %86 to i64
  %88 = getelementptr inbounds %struct.HeadlineWordEntry, ptr %85, i64 %87
  %89 = load i32, ptr %88, align 8
  %90 = lshr i32 %89, 8
  %91 = and i32 %90, 255
  %92 = icmp eq i32 %91, 16
  br i1 %92, label %104, label %93

93:                                               ; preds = %82
  %94 = load ptr, ptr %5, align 8
  %95 = getelementptr inbounds nuw %struct.HeadlineParsedText, ptr %94, i32 0, i32 0
  %96 = load ptr, ptr %95, align 8
  %97 = load i32, ptr %9, align 4
  %98 = sext i32 %97 to i64
  %99 = getelementptr inbounds %struct.HeadlineWordEntry, ptr %96, i64 %98
  %100 = load i32, ptr %99, align 8
  %101 = lshr i32 %100, 8
  %102 = and i32 %101, 255
  %103 = icmp eq i32 %102, 17
  br i1 %103, label %104, label %114

104:                                              ; preds = %93, %82, %71, %60
  %105 = load ptr, ptr %5, align 8
  %106 = getelementptr inbounds nuw %struct.HeadlineParsedText, ptr %105, i32 0, i32 0
  %107 = load ptr, ptr %106, align 8
  %108 = load i32, ptr %9, align 4
  %109 = sext i32 %108 to i64
  %110 = getelementptr inbounds %struct.HeadlineWordEntry, ptr %107, i64 %109
  %111 = load i32, ptr %110, align 8
  %112 = and i32 %111, -17
  %113 = or i32 %112, 16
  store i32 %113, ptr %110, align 8
  br label %114

114:                                              ; preds = %104, %93
  br label %115

115:                                              ; preds = %114, %50
  br label %171

116:                                              ; preds = %36
  %117 = load ptr, ptr %5, align 8
  %118 = getelementptr inbounds nuw %struct.HeadlineParsedText, ptr %117, i32 0, i32 0
  %119 = load ptr, ptr %118, align 8
  %120 = load i32, ptr %9, align 4
  %121 = sext i32 %120 to i64
  %122 = getelementptr inbounds %struct.HeadlineWordEntry, ptr %119, i64 %121
  %123 = load i32, ptr %122, align 8
  %124 = lshr i32 %123, 8
  %125 = and i32 %124, 255
  %126 = icmp eq i32 %125, 5
  br i1 %126, label %160, label %127

127:                                              ; preds = %116
  %128 = load ptr, ptr %5, align 8
  %129 = getelementptr inbounds nuw %struct.HeadlineParsedText, ptr %128, i32 0, i32 0
  %130 = load ptr, ptr %129, align 8
  %131 = load i32, ptr %9, align 4
  %132 = sext i32 %131 to i64
  %133 = getelementptr inbounds %struct.HeadlineWordEntry, ptr %130, i64 %132
  %134 = load i32, ptr %133, align 8
  %135 = lshr i32 %134, 8
  %136 = and i32 %135, 255
  %137 = icmp eq i32 %136, 15
  br i1 %137, label %160, label %138

138:                                              ; preds = %127
  %139 = load ptr, ptr %5, align 8
  %140 = getelementptr inbounds nuw %struct.HeadlineParsedText, ptr %139, i32 0, i32 0
  %141 = load ptr, ptr %140, align 8
  %142 = load i32, ptr %9, align 4
  %143 = sext i32 %142 to i64
  %144 = getelementptr inbounds %struct.HeadlineWordEntry, ptr %141, i64 %143
  %145 = load i32, ptr %144, align 8
  %146 = lshr i32 %145, 8
  %147 = and i32 %146, 255
  %148 = icmp eq i32 %147, 16
  br i1 %148, label %160, label %149

149:                                              ; preds = %138
  %150 = load ptr, ptr %5, align 8
  %151 = getelementptr inbounds nuw %struct.HeadlineParsedText, ptr %150, i32 0, i32 0
  %152 = load ptr, ptr %151, align 8
  %153 = load i32, ptr %9, align 4
  %154 = sext i32 %153 to i64
  %155 = getelementptr inbounds %struct.HeadlineWordEntry, ptr %152, i64 %154
  %156 = load i32, ptr %155, align 8
  %157 = lshr i32 %156, 8
  %158 = and i32 %157, 255
  %159 = icmp eq i32 %158, 17
  br i1 %159, label %160, label %170

160:                                              ; preds = %149, %138, %127, %116
  %161 = load ptr, ptr %5, align 8
  %162 = getelementptr inbounds nuw %struct.HeadlineParsedText, ptr %161, i32 0, i32 0
  %163 = load ptr, ptr %162, align 8
  %164 = load i32, ptr %9, align 4
  %165 = sext i32 %164 to i64
  %166 = getelementptr inbounds %struct.HeadlineWordEntry, ptr %163, i64 %165
  %167 = load i32, ptr %166, align 8
  %168 = and i32 %167, -17
  %169 = or i32 %168, 16
  store i32 %169, ptr %166, align 8
  br label %170

170:                                              ; preds = %160, %149
  br label %171

171:                                              ; preds = %170, %115
  %172 = load ptr, ptr %5, align 8
  %173 = getelementptr inbounds nuw %struct.HeadlineParsedText, ptr %172, i32 0, i32 0
  %174 = load ptr, ptr %173, align 8
  %175 = load i32, ptr %9, align 4
  %176 = sext i32 %175 to i64
  %177 = getelementptr inbounds %struct.HeadlineWordEntry, ptr %174, i64 %176
  %178 = load i32, ptr %177, align 8
  %179 = lshr i32 %178, 3
  %180 = and i32 %179, 1
  %181 = icmp ne i32 %180, 0
  %182 = select i1 %181, i32 0, i32 1
  %183 = load ptr, ptr %5, align 8
  %184 = getelementptr inbounds nuw %struct.HeadlineParsedText, ptr %183, i32 0, i32 0
  %185 = load ptr, ptr %184, align 8
  %186 = load i32, ptr %9, align 4
  %187 = sext i32 %186 to i64
  %188 = getelementptr inbounds %struct.HeadlineWordEntry, ptr %185, i64 %187
  %189 = load i32, ptr %188, align 8
  %190 = and i32 %182, 1
  %191 = shl i32 %190, 1
  %192 = and i32 %189, -3
  %193 = or i32 %192, %191
  store i32 %193, ptr %188, align 8
  br label %194

194:                                              ; preds = %171
  %195 = load i32, ptr %9, align 4
  %196 = add i32 %195, 1
  store i32 %196, ptr %9, align 4
  br label %12, !llvm.loop !37

197:                                              ; preds = %12
  call void @llvm.lifetime.end.p0(i64 4, ptr %9) #11
  ret void
}