; Function Attrs: nofree norecurse nosync nounwind memory(readwrite, inaccessiblemem: none) uwtable
define internal fastcc void @mark_fragment(ptr noundef readonly captures(none) %0, i1 noundef zeroext %1, i32 noundef %2, i32 noundef %3) unnamed_addr #13 {
  %.not41 = icmp sgt i32 %2, %3
  br i1 %.not41, label %._crit_edge, label %.lr.ph

.lr.ph:                                           ; preds = %4
  br i1 %1, label %.lr.ph.split.us, label %.lr.ph.split

.lr.ph.split.us:                                  ; preds = %.lr.ph, %20
  %.042.us = phi i32 [ %29, %20 ], [ %2, %.lr.ph ]
  %5 = load ptr, ptr %0, align 8
  %6 = sext i32 %.042.us to i64
  %7 = getelementptr inbounds %struct.HeadlineWordEntry, ptr %5, i64 %6
  %8 = getelementptr inbounds nuw i8, ptr %7, i64 16
  %9 = load ptr, ptr %8, align 8
  %.not38.us = icmp eq ptr %9, null
  br i1 %.not38.us, label %13, label %10

10:                                               ; preds = %.lr.ph.split.us
  %11 = load i32, ptr %7, align 8
  %12 = or i32 %11, 1
  store i32 %12, ptr %7, align 8
  %.pre44 = load ptr, ptr %0, align 8
  br label %13

13:                                               ; preds = %10, %.lr.ph.split.us
  %14 = phi ptr [ %.pre44, %10 ], [ %5, %.lr.ph.split.us ]
  %15 = getelementptr inbounds %struct.HeadlineWordEntry, ptr %14, i64 %6
  %16 = load i32, ptr %15, align 8
  %17 = lshr i32 %16, 8
  %trunc40.us = trunc i32 %17 to i8
  switch i8 %trunc40.us, label %20 [
    i8 5, label %18
    i8 15, label %18
    i8 16, label %18
    i8 17, label %18
  ]

18:                                               ; preds = %13, %13, %13, %13
  %19 = or i32 %16, 16
  store i32 %19, ptr %15, align 8
  %.pre45 = load ptr, ptr %0, align 8
  %.phi.trans.insert = getelementptr inbounds %struct.HeadlineWordEntry, ptr %.pre45, i64 %6
  %.pre46 = load i32, ptr %.phi.trans.insert, align 8
  br label %20

20:                                               ; preds = %18, %13
  %21 = phi i32 [ %.pre46, %18 ], [ %16, %13 ]
  %22 = phi ptr [ %.pre45, %18 ], [ %14, %13 ]
  %23 = getelementptr inbounds %struct.HeadlineWordEntry, ptr %22, i64 %6
  %24 = lshr i32 %21, 2
  %25 = and i32 %24, 2
  %26 = and i32 %21, -3
  %27 = or disjoint i32 %25, %26
  %28 = xor i32 %27, 2
  store i32 %28, ptr %23, align 8
  %29 = add i32 %.042.us, 1
  %.not.us = icmp sgt i32 %29, %3
  br i1 %.not.us, label %._crit_edge, label %.lr.ph.split.us, !llvm.loop !38

.lr.ph.split:                                     ; preds = %.lr.ph, %45
  %.042 = phi i32 [ %54, %45 ], [ %2, %.lr.ph ]
  %30 = load ptr, ptr %0, align 8
  %31 = sext i32 %.042 to i64
  %32 = getelementptr inbounds %struct.HeadlineWordEntry, ptr %30, i64 %31
  %33 = getelementptr inbounds nuw i8, ptr %32, i64 16
  %34 = load ptr, ptr %33, align 8
  %.not38 = icmp eq ptr %34, null
  br i1 %.not38, label %38, label %35

35:                                               ; preds = %.lr.ph.split
  %36 = load i32, ptr %32, align 8
  %37 = or i32 %36, 1
  store i32 %37, ptr %32, align 8
  %.pre = load ptr, ptr %0, align 8
  br label %38

38:                                               ; preds = %35, %.lr.ph.split
  %39 = phi ptr [ %.pre, %35 ], [ %30, %.lr.ph.split ]
  %40 = getelementptr inbounds %struct.HeadlineWordEntry, ptr %39, i64 %31
  %41 = load i32, ptr %40, align 8
  %42 = lshr i32 %41, 8
  %trunc = trunc i32 %42 to i8
  switch i8 %trunc, label %45 [
    i8 13, label %.sink.split
    i8 5, label %43
    i8 15, label %43
    i8 16, label %43
    i8 17, label %43
  ]

43:                                               ; preds = %38, %38, %38, %38
  br label %.sink.split

.sink.split:                                      ; preds = %38, %43
  %.sink48 = phi i32 [ 16, %43 ], [ 4, %38 ]
  %44 = or i32 %41, %.sink48
  store i32 %44, ptr %40, align 8
  br label %45

45:                                               ; preds = %.sink.split, %38
  %46 = load ptr, ptr %0, align 8
  %47 = getelementptr inbounds %struct.HeadlineWordEntry, ptr %46, i64 %31
  %48 = load i32, ptr %47, align 8
  %49 = lshr i32 %48, 2
  %50 = and i32 %49, 2
  %51 = and i32 %48, -3
  %52 = or disjoint i32 %50, %51
  %53 = xor i32 %52, 2
  store i32 %53, ptr %47, align 8
  %54 = add i32 %.042, 1
  %.not = icmp sgt i32 %54, %3
  br i1 %.not, label %._crit_edge, label %.lr.ph.split, !llvm.loop !38

._crit_edge:                                      ; preds = %45, %20, %4
  ret void
}